target datalayout = "e-m:e-p270:32:32-p271:32:32-p272:64:64-i64:64-i128:128-f80:128-n8:16:32:64-S128"
target triple = "x86_64-unknown-linux-gnu"

%"class.grpc_core::BatchBuilder" = type { ptr, %"class.std::optional", ptr }
%"class.std::optional" = type { %"struct.std::_Optional_base" }
%"struct.std::_Optional_base" = type { %"struct.std::_Optional_payload" }
%"struct.std::_Optional_payload" = type { %"struct.std::_Optional_payload_base.base", [7 x i8] }
%"struct.std::_Optional_payload_base.base" = type <{ %"union.std::_Optional_payload_base<grpc_core::BatchBuilder::Target>::_Storage", i8 }>
%"union.std::_Optional_payload_base<grpc_core::BatchBuilder::Target>::_Storage" = type { %"struct.grpc_core::BatchBuilder::Target" }
%"struct.grpc_core::BatchBuilder::Target" = type { ptr, ptr, ptr }
%"struct.std::_Optional_payload_base" = type <{ %"union.std::_Optional_payload_base<grpc_core::BatchBuilder::Target>::_Storage", i8, [7 x i8] }>

@.str = private unnamed_addr constant [127 x i8] c"generated/home/dtcxzyw/WorkSpace/Projects/compilers/llvm-opt-benchmark/bench/grpc/grpc/src/core/lib/transport/batch_builder.cc\00", align 1
@.str.4 = private unnamed_addr constant [18 x i8] c"batch_ != nullptr\00", align 1
@.str.15 = private unnamed_addr constant [118 x i8] c"generated/home/dtcxzyw/WorkSpace/Projects/compilers/llvm-opt-benchmark/bench/grpc/grpc/src/core/lib/promise/context.h\00", align 1
@.str.16 = private unnamed_addr constant [13 x i8] c"p != nullptr\00", align 1
@_ZN9grpc_core14promise_detail7ContextINS_5ArenaEE8current_E = linkonce_odr thread_local global ptr null, comdat, align 8
@_ZN9grpc_core12BatchBuilder5BatchC1EP38grpc_transport_stream_op_batch_payloadP20grpc_stream_refcount = unnamed_addr alias void (ptr, ptr, ptr), ptr @_ZN9grpc_core12BatchBuilder5BatchC2EP38grpc_transport_stream_op_batch_payloadP20grpc_stream_refcount

; Function Attrs: noreturn nounwind uwtable
define linkonce_odr hidden void @__clang_call_terminate(ptr noundef %0) #6 comdat {
  %2 = call ptr @__cxa_begin_catch(ptr %0) #3
  call void @_ZSt9terminatev() #14
  unreachable
}

; Function Attrs: mustprogress nounwind uwtable
define linkonce_odr void @_ZSt10_ConstructIN9grpc_core12BatchBuilder6TargetEJRS2_EEvPT_DpOT0_(ptr noundef %__p, ptr noundef nonnull align 8 dereferenceable(24) %__args) #4 comdat {
entry:
  %__p.addr = alloca ptr, align 8
  %__args.addr = alloca ptr, align 8
  store ptr %__p, ptr %__p.addr, align 8
  store ptr %__args, ptr %__args.addr, align 8
  %0 = load ptr, ptr %__p.addr, align 8
  %1 = load ptr, ptr %__args.addr, align 8
  call void @llvm.memcpy.p0.p0.i64(ptr align 8 %0, ptr align 8 %1, i64 24, i1 false)
  ret void
}

; Function Attrs: mustprogress nounwind uwtable
define linkonce_odr void @_ZNSt22_Optional_payload_baseIN9grpc_core12BatchBuilder6TargetEE12_M_constructIJRS2_EEEvDpOT_(ptr noundef nonnull align 8 dereferenceable(25) %this, ptr noundef nonnull align 8 dereferenceable(24) %__args) #4 comdat align 2 personality ptr @__gxx_personality_v0 {
entry:
  %this.addr = alloca ptr, align 8
  %__args.addr = alloca ptr, align 8
  store ptr %this, ptr %this.addr, align 8
  store ptr %__args, ptr %__args.addr, align 8
  %this1 = load ptr, ptr %this.addr, align 8
  %_M_payload = getelementptr inbounds %"struct.std::_Optional_payload_base", ptr %this1, i32 0, i32 0
  %0 = load ptr, ptr %__args.addr, align 8
  invoke void @_ZSt10_ConstructIN9grpc_core12BatchBuilder6TargetEJRS2_EEvPT_DpOT0_(ptr noundef %_M_payload, ptr noundef nonnull align 8 dereferenceable(24) %0)
          to label %invoke.cont unwind label %terminate.lpad

invoke.cont:                                      ; preds = %entry
  %_M_engaged = getelementptr inbounds %"struct.std::_Optional_payload_base", ptr %this1, i32 0, i32 1
  store i8 1, ptr %_M_engaged, align 8
  ret void

terminate.lpad:                                   ; preds = %entry
  %1 = landingpad { ptr, i32 }
          catch ptr null
  %2 = extractvalue { ptr, i32 } %1, 0
  call void @__clang_call_terminate(ptr %2) #14
  unreachable
}

; Function Attrs: mustprogress nounwind uwtable
define linkonce_odr noundef nonnull align 8 dereferenceable(24) ptr @_ZNSt22_Optional_payload_baseIN9grpc_core12BatchBuilder6TargetEE6_M_getEv(ptr noundef nonnull align 8 dereferenceable(25) %this) #4 comdat align 2 {
entry:
  %this.addr = alloca ptr, align 8
  store ptr %this, ptr %this.addr, align 8
  %this1 = load ptr, ptr %this.addr, align 8
  %_M_payload = getelementptr inbounds %"struct.std::_Optional_payload_base", ptr %this1, i32 0, i32 0
  ret ptr %_M_payload
}

; Function Attrs: mustprogress nounwind uwtable
define linkonce_odr noundef ptr @_ZN9grpc_core14promise_detail7ContextINS_5ArenaEE3getEv() #4 comdat align 2 {
entry:
  %0 = call align 8 ptr @llvm.threadlocal.address.p0(ptr align 8 @_ZN9grpc_core14promise_detail7ContextINS_5ArenaEE8current_E)
  %1 = load ptr, ptr %0, align 8
  ret ptr %1
}

; Function Attrs: mustprogress nounwind uwtable
define linkonce_odr void @_ZNSt19_Optional_base_implIN9grpc_core12BatchBuilder6TargetESt14_Optional_baseIS2_Lb1ELb1EEE12_M_constructIJRS2_EEEvDpOT_(ptr noundef nonnull align 1 dereferenceable(1) %this, ptr noundef nonnull align 8 dereferenceable(24) %__args) #4 comdat align 2 {
entry:
  %this.addr = alloca ptr, align 8
  %__args.addr = alloca ptr, align 8
  store ptr %this, ptr %this.addr, align 8
  store ptr %__args, ptr %__args.addr, align 8
  %this1 = load ptr, ptr %this.addr, align 8
  %_M_payload = getelementptr inbounds %"struct.std::_Optional_base", ptr %this1, i32 0, i32 0
  %0 = load ptr, ptr %__args.addr, align 8
  call void @_ZNSt22_Optional_payload_baseIN9grpc_core12BatchBuilder6TargetEE12_M_constructIJRS2_EEEvDpOT_(ptr noundef nonnull align 8 dereferenceable(25) %_M_payload, ptr noundef nonnull align 8 dereferenceable(24) %0) #3
  ret void
}

; Function Attrs: mustprogress nounwind uwtable
define linkonce_odr noundef nonnull align 8 dereferenceable(24) ptr @_ZNSt19_Optional_base_implIN9grpc_core12BatchBuilder6TargetESt14_Optional_baseIS2_Lb1ELb1EEE6_M_getEv(ptr noundef nonnull align 1 dereferenceable(1) %this) #4 comdat align 2 {
entry:
  %this.addr = alloca ptr, align 8
  store ptr %this, ptr %this.addr, align 8
  %this1 = load ptr, ptr %this.addr, align 8
  br label %do.body

do.body:                                          ; preds = %entry
  br label %do.cond

do.cond:                                          ; preds = %do.body
  br label %do.end

do.end:                                           ; preds = %do.cond
  %_M_payload = getelementptr inbounds %"struct.std::_Optional_base", ptr %this1, i32 0, i32 0
  %call = call noundef nonnull align 8 dereferenceable(24) ptr @_ZNSt22_Optional_payload_baseIN9grpc_core12BatchBuilder6TargetEE6_M_getEv(ptr noundef nonnull align 8 dereferenceable(25) %_M_payload) #3
  ret ptr %call
}

; Function Attrs: mustprogress nounwind uwtable
define linkonce_odr noundef zeroext i1 @_ZNKSt19_Optional_base_implIN9grpc_core12BatchBuilder6TargetESt14_Optional_baseIS2_Lb1ELb1EEE13_M_is_engagedEv(ptr noundef nonnull align 1 dereferenceable(1) %this) #4 comdat align 2 {
entry:
  %this.addr = alloca ptr, align 8
  store ptr %this, ptr %this.addr, align 8
  %this1 = load ptr, ptr %this.addr, align 8
  %_M_payload = getelementptr inbounds %"struct.std::_Optional_base", ptr %this1, i32 0, i32 0
  %_M_engaged = getelementptr inbounds %"struct.std::_Optional_payload_base", ptr %_M_payload, i32 0, i32 1
  %0 = load i8, ptr %_M_engaged, align 8
  %tobool = trunc i8 %0 to i1
  ret i1 %tobool
}

; Function Attrs: mustprogress uwtable
define linkonce_odr noundef ptr @_ZN9grpc_core5Arena9NewPooledINS_12BatchBuilder5BatchEJRKP38grpc_transport_stream_op_batch_payloadRP20grpc_stream_refcountEEEPT_DpOT0_(ptr noundef nonnull align 8 dereferenceable(48) %this, ptr noundef nonnull align 8 dereferenceable(8) %args, ptr noundef nonnull align 8 dereferenceable(8) %args1) #5 comdat align 2 personality ptr @__gxx_personality_v0 {
entry:
  %this.addr = alloca ptr, align 8
  %args.addr = alloca ptr, align 8
  %args.addr2 = alloca ptr, align 8
  %exn.slot = alloca ptr, align 8
  %ehselector.slot = alloca i32, align 4
  store ptr %this, ptr %this.addr, align 8
  store ptr %args, ptr %args.addr, align 8
  store ptr %args1, ptr %args.addr2, align 8
  %call = call noalias noundef nonnull ptr @_Znwm(i64 noundef 120) #17
  %0 = load ptr, ptr %args.addr, align 8
  %1 = load ptr, ptr %0, align 8
  %2 = load ptr, ptr %args.addr2, align 8
  %3 = load ptr, ptr %2, align 8
  invoke void @_ZN9grpc_core12BatchBuilder5BatchC1EP38grpc_transport_stream_op_batch_payloadP20grpc_stream_refcount(ptr noundef nonnull align 8 dereferenceable(120) %call, ptr noundef %1, ptr noundef %3)
          to label %invoke.cont unwind label %lpad

invoke.cont:                                      ; preds = %entry
  ret ptr %call

lpad:                                             ; preds = %entry
  %4 = landingpad { ptr, i32 }
          cleanup
  %5 = extractvalue { ptr, i32 } %4, 0
  store ptr %5, ptr %exn.slot, align 8
  %6 = extractvalue { ptr, i32 } %4, 1
  store i32 %6, ptr %ehselector.slot, align 4
  call void @_ZdlPv(ptr noundef %call) #16
  br label %eh.resume

eh.resume:                                        ; preds = %lpad
  %exn = load ptr, ptr %exn.slot, align 8
  %sel = load i32, ptr %ehselector.slot, align 4
  %lpad.val = insertvalue { ptr, i32 } poison, ptr %exn, 0
  %lpad.val4 = insertvalue { ptr, i32 } %lpad.val, i32 %sel, 1
  resume { ptr, i32 } %lpad.val4
}

; Function Attrs: mustprogress uwtable
define linkonce_odr noundef ptr @_ZN9grpc_core10GetContextINS_5ArenaEEEPT_v() #5 comdat {
entry:
  %p = alloca ptr, align 8
  %call = call noundef ptr @_ZN9grpc_core14promise_detail7ContextINS_5ArenaEE3getEv()
  store ptr %call, ptr %p, align 8
  br label %do.body

do.body:                                          ; preds = %entry
  %0 = load ptr, ptr %p, align 8
  %cmp = icmp ne ptr %0, null
  %lnot = xor i1 %cmp, true
  br i1 %lnot, label %if.then, label %if.end

if.then:                                          ; preds = %do.body
  call void @gpr_assertion_failed(ptr noundef @.str.15, i32 noundef 80, ptr noundef @.str.16) #15
  unreachable

if.end:                                           ; preds = %do.body
  br label %do.end

do.end:                                           ; preds = %if.end
  %1 = load ptr, ptr %p, align 8
  ret ptr %1
}

; Function Attrs: mustprogress nounwind uwtable
define linkonce_odr noundef nonnull align 8 dereferenceable(32) ptr @_ZNSt8optionalIN9grpc_core12BatchBuilder6TargetEEaSIRS2_EENSt9enable_ifIX7__and_vISt6__not_ISt7is_sameIS3_NSt9remove_cvINSt16remove_referenceIT_E4typeEE4typeEEES7_ISt6__and_IJSt9is_scalarIS2_ES8_IS2_NSt5decayISB_E4typeEEEEESt16is_constructibleIS2_JSB_EESt13is_assignableIS5_SB_EEERS3_E4typeEOSB_(ptr noundef nonnull align 8 dereferenceable(32) %this, ptr noundef nonnull align 8 dereferenceable(24) %__u) #4 comdat align 2 {
entry:
  %this.addr = alloca ptr, align 8
  %__u.addr = alloca ptr, align 8
  store ptr %this, ptr %this.addr, align 8
  store ptr %__u, ptr %__u.addr, align 8
  %this1 = load ptr, ptr %this.addr, align 8
  %call = call noundef zeroext i1 @_ZNKSt19_Optional_base_implIN9grpc_core12BatchBuilder6TargetESt14_Optional_baseIS2_Lb1ELb1EEE13_M_is_engagedEv(ptr noundef nonnull align 1 dereferenceable(1) %this1) #3
  br i1 %call, label %if.then, label %if.else

if.then:                                          ; preds = %entry
  %0 = load ptr, ptr %__u.addr, align 8
  %call2 = call noundef nonnull align 8 dereferenceable(24) ptr @_ZNSt19_Optional_base_implIN9grpc_core12BatchBuilder6TargetESt14_Optional_baseIS2_Lb1ELb1EEE6_M_getEv(ptr noundef nonnull align 1 dereferenceable(1) %this1) #3
  call void @llvm.memcpy.p0.p0.i64(ptr align 8 %call2, ptr align 8 %0, i64 24, i1 false)
  br label %if.end

if.else:                                          ; preds = %entry
  %1 = load ptr, ptr %__u.addr, align 8
  call void @_ZNSt19_Optional_base_implIN9grpc_core12BatchBuilder6TargetESt14_Optional_baseIS2_Lb1ELb1EEE12_M_constructIJRS2_EEEvDpOT_(ptr noundef nonnull align 1 dereferenceable(1) %this1, ptr noundef nonnull align 8 dereferenceable(24) %1) #3
  br label %if.end

if.end:                                           ; preds = %if.else, %if.then
  ret ptr %this1
}

; Function Attrs: mustprogress nounwind uwtable
define linkonce_odr noundef ptr @_ZNSt8optionalIN9grpc_core12BatchBuilder6TargetEEptEv(ptr noundef nonnull align 8 dereferenceable(32) %this) #4 comdat align 2 {
entry:
  %this.addr = alloca ptr, align 8
  store ptr %this, ptr %this.addr, align 8
  %this1 = load ptr, ptr %this.addr, align 8
  %call = call noundef nonnull align 8 dereferenceable(24) ptr @_ZNSt19_Optional_base_implIN9grpc_core12BatchBuilder6TargetESt14_Optional_baseIS2_Lb1ELb1EEE6_M_getEv(ptr noundef nonnull align 1 dereferenceable(1) %this1) #3
  ret ptr %call
}

; Function Attrs: mustprogress nounwind uwtable
define linkonce_odr noundef zeroext i1 @_ZNKSt8optionalIN9grpc_core12BatchBuilder6TargetEE9has_valueEv(ptr noundef nonnull align 8 dereferenceable(32) %this) #4 comdat align 2 {
entry:
  %this.addr = alloca ptr, align 8
  store ptr %this, ptr %this.addr, align 8
  %this1 = load ptr, ptr %this.addr, align 8
  %call = call noundef zeroext i1 @_ZNKSt19_Optional_base_implIN9grpc_core12BatchBuilder6TargetESt14_Optional_baseIS2_Lb1ELb1EEE13_M_is_engagedEv(ptr noundef nonnull align 1 dereferenceable(1) %this1) #3
  ret i1 %call
}

; Function Attrs: mustprogress uwtable
define noundef ptr @_ZN9grpc_core12BatchBuilder8GetBatchENS0_6TargetE(ptr noundef nonnull align 8 dereferenceable(48) %this, ptr noundef byval(%"struct.grpc_core::BatchBuilder::Target") align 8 %target) #5 align 2 {
entry:
  %this.addr = alloca ptr, align 8
  store ptr %this, ptr %this.addr, align 8
  %this1 = load ptr, ptr %this.addr, align 8
  %target_ = getelementptr inbounds %"class.grpc_core::BatchBuilder", ptr %this1, i32 0, i32 1
  %call = call noundef zeroext i1 @_ZNKSt8optionalIN9grpc_core12BatchBuilder6TargetEE9has_valueEv(ptr noundef nonnull align 8 dereferenceable(32) %target_) #3
  br i1 %call, label %land.lhs.true, label %if.end

land.lhs.true:                                    ; preds = %entry
  %target_2 = getelementptr inbounds %"class.grpc_core::BatchBuilder", ptr %this1, i32 0, i32 1
  %call3 = call noundef ptr @_ZNSt8optionalIN9grpc_core12BatchBuilder6TargetEEptEv(ptr noundef nonnull align 8 dereferenceable(32) %target_2) #3
  %stream = getelementptr inbounds %"struct.grpc_core::BatchBuilder::Target", ptr %call3, i32 0, i32 1
  %0 = load ptr, ptr %stream, align 8
  %stream4 = getelementptr inbounds %"struct.grpc_core::BatchBuilder::Target", ptr %target, i32 0, i32 1
  %1 = load ptr, ptr %stream4, align 8
  %cmp = icmp ne ptr %0, %1
  br i1 %cmp, label %if.then, label %lor.lhs.false

lor.lhs.false:                                    ; preds = %land.lhs.true
  %transport = getelementptr inbounds %"struct.grpc_core::BatchBuilder::Target", ptr %target, i32 0, i32 0
  %2 = load ptr, ptr %transport, align 8
  %vtable = load ptr, ptr %2, align 8
  %vfn = getelementptr inbounds ptr, ptr %vtable, i64 3
  %3 = load ptr, ptr %vfn, align 8
  %call5 = call noundef ptr %3(ptr noundef nonnull align 8 dereferenceable(8) %2)
  %vtable6 = load ptr, ptr %call5, align 8
  %vfn7 = getelementptr inbounds ptr, ptr %vtable6, i64 2
  %4 = load ptr, ptr %vfn7, align 8
  %call8 = call noundef zeroext i1 %4(ptr noundef nonnull align 8 dereferenceable(8) %call5)
  br i1 %call8, label %if.then, label %if.end

if.then:                                          ; preds = %lor.lhs.false, %land.lhs.true
  call void @_ZN9grpc_core12BatchBuilder10FlushBatchEv(ptr noundef nonnull align 8 dereferenceable(48) %this1)
  br label %if.end

if.end:                                           ; preds = %if.then, %lor.lhs.false, %entry
  %target_9 = getelementptr inbounds %"class.grpc_core::BatchBuilder", ptr %this1, i32 0, i32 1
  %call10 = call noundef zeroext i1 @_ZNKSt8optionalIN9grpc_core12BatchBuilder6TargetEE9has_valueEv(ptr noundef nonnull align 8 dereferenceable(32) %target_9) #3
  br i1 %call10, label %if.end18, label %if.then11

if.then11:                                        ; preds = %if.end
  %target_12 = getelementptr inbounds %"class.grpc_core::BatchBuilder", ptr %this1, i32 0, i32 1
  %call13 = call noundef nonnull align 8 dereferenceable(32) ptr @_ZNSt8optionalIN9grpc_core12BatchBuilder6TargetEEaSIRS2_EENSt9enable_ifIX7__and_vISt6__not_ISt7is_sameIS3_NSt9remove_cvINSt16remove_referenceIT_E4typeEE4typeEEES7_ISt6__and_IJSt9is_scalarIS2_ES8_IS2_NSt5decayISB_E4typeEEEEESt16is_constructibleIS2_JSB_EESt13is_assignableIS5_SB_EEERS3_E4typeEOSB_(ptr noundef nonnull align 8 dereferenceable(32) %target_12, ptr noundef nonnull align 8 dereferenceable(24) %target) #3
  %call14 = call noundef ptr @_ZN9grpc_core10GetContextINS_5ArenaEEEPT_v()
  %payload_ = getelementptr inbounds %"class.grpc_core::BatchBuilder", ptr %this1, i32 0, i32 0
  %target_15 = getelementptr inbounds %"class.grpc_core::BatchBuilder", ptr %this1, i32 0, i32 1
  %call16 = call noundef ptr @_ZNSt8optionalIN9grpc_core12BatchBuilder6TargetEEptEv(ptr noundef nonnull align 8 dereferenceable(32) %target_15) #3
  %stream_refcount = getelementptr inbounds %"struct.grpc_core::BatchBuilder::Target", ptr %call16, i32 0, i32 2
  %call17 = call noundef ptr @_ZN9grpc_core5Arena9NewPooledINS_12BatchBuilder5BatchEJRKP38grpc_transport_stream_op_batch_payloadRP20grpc_stream_refcountEEEPT_DpOT0_(ptr noundef nonnull align 8 dereferenceable(48) %call14, ptr noundef nonnull align 8 dereferenceable(8) %payload_, ptr noundef nonnull align 8 dereferenceable(8) %stream_refcount)
  %batch_ = getelementptr inbounds %"class.grpc_core::BatchBuilder", ptr %this1, i32 0, i32 2
  store ptr %call17, ptr %batch_, align 8
  br label %if.end18

if.end18:                                         ; preds = %if.then11, %if.end
  br label %do.body

do.body:                                          ; preds = %if.end18
  %batch_19 = getelementptr inbounds %"class.grpc_core::BatchBuilder", ptr %this1, i32 0, i32 2
  %5 = load ptr, ptr %batch_19, align 8
  %cmp20 = icmp ne ptr %5, null
  %lnot = xor i1 %cmp20, true
  br i1 %lnot, label %if.then21, label %if.end22

if.then21:                                        ; preds = %do.body
  call void @gpr_assertion_failed(ptr noundef @.str, i32 noundef 109, ptr noundef @.str.4) #15
  unreachable

if.end22:                                         ; preds = %do.body
  br label %do.end

do.end:                                           ; preds = %if.end22
  %batch_23 = getelementptr inbounds %"class.grpc_core::BatchBuilder", ptr %this1, i32 0, i32 2
  %6 = load ptr, ptr %batch_23, align 8
  ret ptr %6
}