; Function Attrs: mustprogress uwtable
define noundef ptr @_ZN9grpc_core12BatchBuilder8GetBatchENS0_6TargetE(ptr nocapture noundef nonnull align 8 dereferenceable(48) %this, ptr nocapture noundef readonly byval(%"struct.grpc_core::BatchBuilder::Target") align 8 %target) local_unnamed_addr #4 align 2 personality ptr @__gxx_personality_v0 {
entry:
  %target_ = getelementptr inbounds i8, ptr %this, i64 8
  %_M_engaged.i.i = getelementptr inbounds i8, ptr %this, i64 32
  %0 = load i8, ptr %_M_engaged.i.i, align 8
  %1 = and i8 %0, 1
  %tobool.i.i.not = icmp eq i8 %1, 0
  br i1 %tobool.i.i.not, label %if.end, label %land.lhs.true

land.lhs.true:                                    ; preds = %entry
  %stream = getelementptr inbounds i8, ptr %this, i64 16
  %2 = load ptr, ptr %stream, align 8
  %stream4 = getelementptr inbounds i8, ptr %target, i64 8
  %3 = load ptr, ptr %stream4, align 8
  %cmp.not = icmp eq ptr %2, %3
  br i1 %cmp.not, label %lor.lhs.false, label %if.then

lor.lhs.false:                                    ; preds = %land.lhs.true
  %4 = load ptr, ptr %target, align 8
  %vtable = load ptr, ptr %4, align 8
  %vfn = getelementptr inbounds i8, ptr %vtable, i64 24
  %5 = load ptr, ptr %vfn, align 8
  %call5 = tail call noundef ptr %5(ptr noundef nonnull align 8 dereferenceable(8) %4)
  %vtable6 = load ptr, ptr %call5, align 8
  %vfn7 = getelementptr inbounds i8, ptr %vtable6, i64 16
  %6 = load ptr, ptr %vfn7, align 8
  %call8 = tail call noundef zeroext i1 %6(ptr noundef nonnull align 8 dereferenceable(8) %call5)
  br i1 %call8, label %if.then, label %if.end

if.then:                                          ; preds = %lor.lhs.false, %land.lhs.true
  tail call void @_ZN9grpc_core12BatchBuilder10FlushBatchEv(ptr noundef nonnull align 8 dereferenceable(48) %this)
  br label %if.end

if.end:                                           ; preds = %if.then, %lor.lhs.false, %entry
  %7 = load i8, ptr %_M_engaged.i.i, align 8
  %8 = and i8 %7, 1
  %tobool.i.i2.not = icmp eq i8 %8, 0
  br i1 %tobool.i.i2.not, label %_ZNSt8optionalIN9grpc_core12BatchBuilder6TargetEEaSIRS2_EENSt9enable_ifIX7__and_vISt6__not_ISt7is_sameIS3_NSt9remove_cvINSt16remove_referenceIT_E4typeEE4typeEEES7_ISt6__and_IJSt9is_scalarIS2_ES8_IS2_NSt5decayISB_E4typeEEEEESt16is_constructibleIS2_JSB_EESt13is_assignableIS5_SB_EEERS3_E4typeEOSB_.exit, label %do.body

_ZNSt8optionalIN9grpc_core12BatchBuilder6TargetEEaSIRS2_EENSt9enable_ifIX7__and_vISt6__not_ISt7is_sameIS3_NSt9remove_cvINSt16remove_referenceIT_E4typeEE4typeEEES7_ISt6__and_IJSt9is_scalarIS2_ES8_IS2_NSt5decayISB_E4typeEEEEESt16is_constructibleIS2_JSB_EESt13is_assignableIS5_SB_EEERS3_E4typeEOSB_.exit: ; preds = %if.end
  call void @llvm.memcpy.p0.p0.i64(ptr noundef nonnull align 8 dereferenceable(24) %target_, ptr noundef nonnull align 8 dereferenceable(24) %target, i64 24, i1 false)
  store i8 1, ptr %_M_engaged.i.i, align 8
  %9 = tail call align 8 ptr @llvm.threadlocal.address.p0(ptr align 8 @_ZN9grpc_core14promise_detail7ContextINS_5ArenaEE8current_E)
  %10 = load ptr, ptr %9, align 8
  %cmp.not.i = icmp eq ptr %10, null
  br i1 %cmp.not.i, label %if.then.i, label %_ZN9grpc_core10GetContextINS_5ArenaEEEPT_v.exit

if.then.i:                                        ; preds = %_ZNSt8optionalIN9grpc_core12BatchBuilder6TargetEEaSIRS2_EENSt9enable_ifIX7__and_vISt6__not_ISt7is_sameIS3_NSt9remove_cvINSt16remove_referenceIT_E4typeEE4typeEEES7_ISt6__and_IJSt9is_scalarIS2_ES8_IS2_NSt5decayISB_E4typeEEEEESt16is_constructibleIS2_JSB_EESt13is_assignableIS5_SB_EEERS3_E4typeEOSB_.exit
  tail call void @gpr_assertion_failed(ptr noundef nonnull @.str.15, i32 noundef 80, ptr noundef nonnull @.str.16) #24
  unreachable

_ZN9grpc_core10GetContextINS_5ArenaEEEPT_v.exit:  ; preds = %_ZNSt8optionalIN9grpc_core12BatchBuilder6TargetEEaSIRS2_EENSt9enable_ifIX7__and_vISt6__not_ISt7is_sameIS3_NSt9remove_cvINSt16remove_referenceIT_E4typeEE4typeEEES7_ISt6__and_IJSt9is_scalarIS2_ES8_IS2_NSt5decayISB_E4typeEEEEESt16is_constructibleIS2_JSB_EESt13is_assignableIS5_SB_EEERS3_E4typeEOSB_.exit
  %stream_refcount = getelementptr inbounds i8, ptr %this, i64 24
  %call.i = tail call noalias noundef nonnull dereferenceable(120) ptr @_Znwm(i64 noundef 120) #21
  %11 = load ptr, ptr %this, align 8
  %12 = load ptr, ptr %stream_refcount, align 8
  invoke void @_ZN9grpc_core12BatchBuilder5BatchC1EP38grpc_transport_stream_op_batch_payloadP20grpc_stream_refcount(ptr noundef nonnull align 8 dereferenceable(120) %call.i, ptr noundef %11, ptr noundef %12)
          to label %do.body.thread unwind label %lpad.i

lpad.i:                                           ; preds = %_ZN9grpc_core10GetContextINS_5ArenaEEEPT_v.exit
  %13 = landingpad { ptr, i32 }
          cleanup
  tail call void @_ZdlPv(ptr noundef nonnull %call.i) #23
  resume { ptr, i32 } %13

do.body.thread:                                   ; preds = %_ZN9grpc_core10GetContextINS_5ArenaEEEPT_v.exit
  %batch_ = getelementptr inbounds i8, ptr %this, i64 40
  store ptr %call.i, ptr %batch_, align 8
  br label %do.end

do.body:                                          ; preds = %if.end
  %batch_19.phi.trans.insert = getelementptr inbounds i8, ptr %this, i64 40
  %.pre = load ptr, ptr %batch_19.phi.trans.insert, align 8
  %cmp20.not = icmp eq ptr %.pre, null
  br i1 %cmp20.not, label %if.then21, label %do.end

if.then21:                                        ; preds = %do.body
  tail call void @gpr_assertion_failed(ptr noundef nonnull @.str, i32 noundef 109, ptr noundef nonnull @.str.4) #24
  unreachable

do.end:                                           ; preds = %do.body.thread, %do.body
  %14 = phi ptr [ %call.i, %do.body.thread ], [ %.pre, %do.body ]
  ret ptr %14
}